target datalayout = "e-m:e-p270:32:32-p271:32:32-p272:64:64-i64:64-i128:128-f80:128-n8:16:32:64-S128"
target triple = "x86_64-pc-linux-gnu"

%struct._lv_global_t = type { i8, i8, %struct.lv_ll_t, ptr, ptr, %struct.lv_ll_t, i8, i32, i32, ptr, %struct.lv_ll_t, ptr, %struct.lv_ll_t, ptr, ptr, i32, ptr, i8, i32, i32, ptr, i32, %struct.lv_timer_state_t, %struct.lv_anim_state_t, %struct.lv_tick_state_t, %struct._lv_draw_buf_handlers_t, %struct._lv_draw_buf_handlers_t, %struct._lv_draw_buf_handlers_t, %struct.lv_ll_t, ptr, ptr, %struct.lv_draw_global_info_t, [4 x %struct.lv_draw_sw_mask_radius_circle_dsc_t], ptr, ptr, ptr, %struct.lv_tlsf_state_t, %struct.lv_ll_t, ptr, ptr, %struct.lv_style_t, i64, ptr, i32, ptr }
%struct.lv_timer_state_t = type { %struct.lv_ll_t, i8, i8, i8, i8, i32, i8, i32, i32, i32, i32, ptr, ptr }
%struct.lv_anim_state_t = type { i8, i8, ptr, %struct.lv_ll_t }
%struct.lv_tick_state_t = type { i32, i8, ptr, ptr }
%struct._lv_draw_buf_handlers_t = type { ptr, ptr, ptr, ptr, ptr, ptr }
%struct.lv_draw_global_info_t = type { ptr, i32, i32, i32, i32, i8 }
%struct.lv_draw_sw_mask_radius_circle_dsc_t = type { ptr, ptr, ptr, ptr, i32, i32, i32 }
%struct.lv_tlsf_state_t = type { ptr, i64, i64, %struct.lv_ll_t }
%struct.lv_ll_t = type { i32, ptr, ptr }
%struct.lv_style_t = type { ptr, i32, i8 }
%struct._lv_image_decoder_dsc_t = type { ptr, %struct._lv_image_decoder_args_t, ptr, i32, %struct.lv_fs_file_t, %struct.lv_image_header_t, ptr, ptr, i32, i32, ptr, ptr, ptr, ptr }
%struct._lv_image_decoder_args_t = type { i8, i8, i8, i8, i8 }
%struct.lv_fs_file_t = type { ptr, ptr, ptr }
%struct.lv_image_header_t = type <{ i64, i32 }>
%struct._lv_draw_buf_t = type { %struct.lv_image_header_t, i32, ptr, ptr, ptr }

@lv_global = external global %struct._lv_global_t, align 8

; Function Attrs: nounwind uwtable
define ptr @lv_image_decoder_post_process(ptr noundef %0, ptr noundef %1) #0 {
  %3 = alloca ptr, align 8
  %4 = alloca ptr, align 8
  %5 = alloca ptr, align 8
  %6 = alloca ptr, align 8
  %7 = alloca i32, align 4
  %8 = alloca i32, align 4
  %9 = alloca ptr, align 8
  %10 = alloca i32, align 4
  store ptr %0, ptr %4, align 8, !tbaa !46
  store ptr %1, ptr %5, align 8, !tbaa !91
  %11 = load ptr, ptr %5, align 8, !tbaa !91
  %12 = icmp eq ptr %11, null
  br i1 %12, label %13, label %14

13:                                               ; preds = %2
  store ptr null, ptr %3, align 8
  br label %157

14:                                               ; preds = %2
  call void @llvm.lifetime.start.p0(i64 8, ptr %6) #5
  %15 = load ptr, ptr %4, align 8, !tbaa !46
  %16 = getelementptr inbounds nuw %struct._lv_image_decoder_dsc_t, ptr %15, i32 0, i32 1
  store ptr %16, ptr %6, align 8, !tbaa !67
  %17 = load ptr, ptr %6, align 8, !tbaa !67
  %18 = getelementptr inbounds nuw %struct._lv_image_decoder_args_t, ptr %17, i32 0, i32 0
  %19 = load i8, ptr %18, align 1, !tbaa !73, !range !51, !noundef !52
  %20 = trunc i8 %19 to i1
  br i1 %20, label %21, label %100

21:                                               ; preds = %14
  %22 = load ptr, ptr %5, align 8, !tbaa !91
  %23 = getelementptr inbounds nuw %struct._lv_draw_buf_t, ptr %22, i32 0, i32 0
  %24 = load i64, ptr %23, align 8
  %25 = lshr i64 %24, 8
  %26 = and i64 %25, 255
  %27 = trunc i64 %26 to i32
  %28 = icmp ne i32 %27, 20
  br i1 %28, label %29, label %100

29:                                               ; preds = %21
  call void @llvm.lifetime.start.p0(i64 4, ptr %7) #5
  %30 = load ptr, ptr %5, align 8, !tbaa !91
  %31 = getelementptr inbounds nuw %struct._lv_draw_buf_t, ptr %30, i32 0, i32 0
  %32 = load i64, ptr %31, align 8
  %33 = lshr i64 %32, 32
  %34 = and i64 %33, 65535
  %35 = trunc i64 %34 to i32
  %36 = load ptr, ptr %5, align 8, !tbaa !91
  %37 = getelementptr inbounds nuw %struct._lv_draw_buf_t, ptr %36, i32 0, i32 0
  %38 = load i64, ptr %37, align 8
  %39 = lshr i64 %38, 8
  %40 = and i64 %39, 255
  %41 = trunc i64 %40 to i32
  %42 = call i32 @lv_draw_buf_width_to_stride(i32 noundef %35, i32 noundef %41)
  store i32 %42, ptr %7, align 4, !tbaa !3
  %43 = load ptr, ptr %5, align 8, !tbaa !91
  %44 = getelementptr inbounds nuw %struct._lv_draw_buf_t, ptr %43, i32 0, i32 0
  %45 = getelementptr inbounds nuw %struct.lv_image_header_t, ptr %44, i32 0, i32 1
  %46 = load i32, ptr %45, align 8
  %47 = and i32 %46, 65535
  %48 = load i32, ptr %7, align 4, !tbaa !3
  %49 = icmp ne i32 %47, %48
  br i1 %49, label %50, label %96

50:                                               ; preds = %29
  br label %51

51:                                               ; preds = %50
  br label %52

52:                                               ; preds = %51
  br label %53

53:                                               ; preds = %52
  call void @llvm.lifetime.start.p0(i64 4, ptr %8) #5
  %54 = load ptr, ptr %5, align 8, !tbaa !91
  %55 = load i32, ptr %7, align 4, !tbaa !3
  %56 = call i32 @lv_draw_buf_adjust_stride(ptr noundef %54, i32 noundef %55)
  store i32 %56, ptr %8, align 4, !tbaa !3
  %57 = load i32, ptr %8, align 4, !tbaa !3
  %58 = icmp ne i32 %57, 1
  br i1 %58, label %59, label %92

59:                                               ; preds = %53
  call void @llvm.lifetime.start.p0(i64 8, ptr %9) #5
  %60 = load ptr, ptr %5, align 8, !tbaa !91
  %61 = getelementptr inbounds nuw %struct._lv_draw_buf_t, ptr %60, i32 0, i32 0
  %62 = load i64, ptr %61, align 8
  %63 = lshr i64 %62, 32
  %64 = and i64 %63, 65535
  %65 = trunc i64 %64 to i32
  %66 = load ptr, ptr %5, align 8, !tbaa !91
  %67 = getelementptr inbounds nuw %struct._lv_draw_buf_t, ptr %66, i32 0, i32 0
  %68 = load i64, ptr %67, align 8
  %69 = lshr i64 %68, 48
  %70 = trunc i64 %69 to i32
  %71 = load ptr, ptr %5, align 8, !tbaa !91
  %72 = getelementptr inbounds nuw %struct._lv_draw_buf_t, ptr %71, i32 0, i32 0
  %73 = load i64, ptr %72, align 8
  %74 = lshr i64 %73, 8
  %75 = and i64 %74, 255
  %76 = trunc i64 %75 to i32
  %77 = load i32, ptr %7, align 4, !tbaa !3
  %78 = call ptr @lv_draw_buf_create_ex(ptr noundef getelementptr inbounds nuw (%struct._lv_global_t, ptr @lv_global, i32 0, i32 27), i32 noundef %65, i32 noundef %70, i32 noundef %76, i32 noundef %77)
  store ptr %78, ptr %9, align 8, !tbaa !91
  %79 = load ptr, ptr %9, align 8, !tbaa !91
  %80 = icmp eq ptr %79, null
  br i1 %80, label %81, label %85

81:                                               ; preds = %59
  br label %82

82:                                               ; preds = %81
  br label %83

83:                                               ; preds = %82
  br label %84

84:                                               ; preds = %83
  store ptr null, ptr %3, align 8
  store i32 1, ptr %10, align 4
  br label %89

85:                                               ; preds = %59
  %86 = load ptr, ptr %9, align 8, !tbaa !91
  %87 = load ptr, ptr %5, align 8, !tbaa !91
  call void @lv_draw_buf_copy(ptr noundef %86, ptr noundef null, ptr noundef %87, ptr noundef null)
  %88 = load ptr, ptr %9, align 8, !tbaa !91
  store ptr %88, ptr %5, align 8, !tbaa !91
  store i32 0, ptr %10, align 4
  br label %89

89:                                               ; preds = %85, %84
  call void @llvm.lifetime.end.p0(i64 8, ptr %9) #5
  %90 = load i32, ptr %10, align 4
  switch i32 %90, label %93 [
    i32 0, label %91
  ]

91:                                               ; preds = %89
  br label %92

92:                                               ; preds = %91, %53
  store i32 0, ptr %10, align 4
  br label %93

93:                                               ; preds = %92, %89
  call void @llvm.lifetime.end.p0(i64 4, ptr %8) #5
  %94 = load i32, ptr %10, align 4
  switch i32 %94, label %97 [
    i32 0, label %95
  ]

95:                                               ; preds = %93
  br label %96

96:                                               ; preds = %95, %29
  store i32 0, ptr %10, align 4
  br label %97

97:                                               ; preds = %96, %93
  call void @llvm.lifetime.end.p0(i64 4, ptr %7) #5
  %98 = load i32, ptr %10, align 4
  switch i32 %98, label %156 [
    i32 0, label %99
  ]

99:                                               ; preds = %97
  br label %100

100:                                              ; preds = %99, %21, %14
  %101 = load ptr, ptr %6, align 8, !tbaa !67
  %102 = getelementptr inbounds nuw %struct._lv_image_decoder_args_t, ptr %101, i32 0, i32 1
  %103 = load i8, ptr %102, align 1, !tbaa !74, !range !51, !noundef !52
  %104 = trunc i8 %103 to i1
  br i1 %104, label %105, label %154

105:                                              ; preds = %100
  %106 = load ptr, ptr %5, align 8, !tbaa !91
  %107 = getelementptr inbounds nuw %struct._lv_draw_buf_t, ptr %106, i32 0, i32 0
  %108 = load i64, ptr %107, align 8
  %109 = lshr i64 %108, 8
  %110 = and i64 %109, 255
  %111 = trunc i64 %110 to i32
  %112 = icmp sge i32 %111, 11
  br i1 %112, label %113, label %121

113:                                              ; preds = %105
  %114 = load ptr, ptr %5, align 8, !tbaa !91
  %115 = getelementptr inbounds nuw %struct._lv_draw_buf_t, ptr %114, i32 0, i32 0
  %116 = load i64, ptr %115, align 8
  %117 = lshr i64 %116, 8
  %118 = and i64 %117, 255
  %119 = trunc i64 %118 to i32
  %120 = icmp sle i32 %119, 14
  br i1 %120, label %154, label %121

121:                                              ; preds = %113, %105
  %122 = load ptr, ptr %5, align 8, !tbaa !91
  %123 = getelementptr inbounds nuw %struct._lv_draw_buf_t, ptr %122, i32 0, i32 0
  %124 = load i64, ptr %123, align 8
  %125 = lshr i64 %124, 8
  %126 = and i64 %125, 255
  %127 = trunc i64 %126 to i32
  %128 = call zeroext i1 @lv_color_format_has_alpha(i32 noundef %127)
  br i1 %128, label %129, label %154

129:                                              ; preds = %121
  %130 = load ptr, ptr %5, align 8, !tbaa !91
  %131 = call zeroext i1 @lv_draw_buf_has_flag(ptr noundef %130, i32 noundef 1)
  br i1 %131, label %154, label %132

132:                                              ; preds = %129
  br label %133

133:                                              ; preds = %132
  br label %134

134:                                              ; preds = %133
  br label %135

135:                                              ; preds = %134
  %136 = load ptr, ptr %5, align 8, !tbaa !91
  %137 = call zeroext i1 @lv_draw_buf_has_flag(ptr noundef %136, i32 noundef 32)
  br i1 %137, label %138, label %141

138:                                              ; preds = %135
  %139 = load ptr, ptr %5, align 8, !tbaa !91
  %140 = call i32 @lv_draw_buf_premultiply(ptr noundef %139)
  br label %153

141:                                              ; preds = %135
  %142 = load ptr, ptr %5, align 8, !tbaa !91
  %143 = call ptr @lv_draw_buf_dup_ex(ptr noundef getelementptr inbounds nuw (%struct._lv_global_t, ptr @lv_global, i32 0, i32 27), ptr noundef %142)
  store ptr %143, ptr %5, align 8, !tbaa !91
  %144 = load ptr, ptr %5, align 8, !tbaa !91
  %145 = icmp eq ptr %144, null
  br i1 %145, label %146, label %150

146:                                              ; preds = %141
  br label %147

147:                                              ; preds = %146
  br label %148

148:                                              ; preds = %147
  br label %149

149:                                              ; preds = %148
  store ptr null, ptr %3, align 8
  store i32 1, ptr %10, align 4
  br label %156

150:                                              ; preds = %141
  %151 = load ptr, ptr %5, align 8, !tbaa !91
  %152 = call i32 @lv_draw_buf_premultiply(ptr noundef %151)
  br label %153

153:                                              ; preds = %150, %138
  br label %154

154:                                              ; preds = %153, %129, %121, %113, %100
  %155 = load ptr, ptr %5, align 8, !tbaa !91
  store ptr %155, ptr %3, align 8
  store i32 1, ptr %10, align 4
  br label %156

156:                                              ; preds = %154, %149, %97
  call void @llvm.lifetime.end.p0(i64 8, ptr %6) #5
  br label %157

157:                                              ; preds = %156, %13
  %158 = load ptr, ptr %3, align 8
  ret ptr %158
}